; Function Attrs: nounwind uwtable
define ptr @Unr_ManUnroll(ptr noundef %0, i32 noundef %1) local_unnamed_addr #0 {
  %3 = tail call ptr @Unr_ManAlloc(ptr noundef %0)
  tail call void @Unr_ManSetup(ptr noundef %3, i32 noundef 1)
  %4 = load ptr, ptr %3, align 8
  %5 = getelementptr i8, ptr %4, i64 16
  %.val1516.i = load i32, ptr %5, align 8
  %6 = icmp sgt i32 %.val1516.i, 0
  br i1 %6, label %.lr.ph.i, label %Unr_ManUnrollStart.exit

.lr.ph.i:                                         ; preds = %2
  %7 = getelementptr inbounds nuw i8, ptr %3, i64 88
  %8 = getelementptr i8, ptr %3, i64 56
  br label %9

9:                                                ; preds = %37, %.lr.ph.i
  %10 = phi ptr [ %4, %.lr.ph.i ], [ %38, %37 ]
  %.val1518.i = phi i32 [ %.val1516.i, %.lr.ph.i ], [ %.val15.i, %37 ]
  %.017.i = phi i32 [ 0, %.lr.ph.i ], [ %39, %37 ]
  %11 = load ptr, ptr %7, align 8
  %12 = getelementptr i8, ptr %10, i64 72
  %.val13.i = load ptr, ptr %12, align 8
  %13 = getelementptr i8, ptr %.val13.i, i64 4
  %.val13.val.i = load i32, ptr %13, align 4
  %14 = sub i32 %.017.i, %.val1518.i
  %15 = add i32 %14, %.val13.val.i
  %16 = getelementptr i8, ptr %11, i64 8
  %.val.i = load ptr, ptr %16, align 8
  %17 = sext i32 %15 to i64
  %18 = getelementptr inbounds i32, ptr %.val.i, i64 %17
  %19 = load i32, ptr %18, align 4
  %.not.i = icmp eq i32 %19, -1
  br i1 %.not.i, label %37, label %20

20:                                               ; preds = %9
  %.val14.i = load ptr, ptr %8, align 8
  %21 = sext i32 %19 to i64
  %22 = getelementptr inbounds i32, ptr %.val14.i, i64 %21
  %23 = getelementptr inbounds nuw i8, ptr %22, i64 8
  %24 = load i64, ptr %23, align 4
  %25 = lshr i64 %24, 49
  %26 = trunc nuw nsw i64 %25 to i16
  %27 = add nuw i16 %26, 1
  %.lhs.trunc.i.i = and i16 %27, 32767
  %28 = lshr i64 %24, 34
  %29 = trunc i64 %28 to i16
  %.rhs.trunc.i.i = and i16 %29, 32767
  %30 = urem i16 %.lhs.trunc.i.i, %.rhs.trunc.i.i
  %31 = zext nneg i16 %30 to i64
  %32 = shl nuw i64 %31, 49
  %33 = and i64 %24, 562949953421311
  %34 = or disjoint i64 %32, %33
  store i64 %34, ptr %23, align 4
  %35 = getelementptr inbounds nuw i8, ptr %22, i64 20
  %36 = getelementptr inbounds nuw [1 x i32], ptr %35, i64 0, i64 %31
  store i32 0, ptr %36, align 4
  %.pre.i = load ptr, ptr %3, align 8
  br label %37

37:                                               ; preds = %20, %9
  %38 = phi ptr [ %10, %9 ], [ %.pre.i, %20 ]
  %39 = add nuw nsw i32 %.017.i, 1
  %40 = getelementptr i8, ptr %38, i64 16
  %.val15.i = load i32, ptr %40, align 8
  %41 = icmp slt i32 %39, %.val15.i
  br i1 %41, label %9, label %Unr_ManUnrollStart.exit, !llvm.loop !18

Unr_ManUnrollStart.exit:                          ; preds = %37, %2
  %42 = icmp sgt i32 %1, 0
  br i1 %42, label %.lr.ph, label %._crit_edge

.lr.ph:                                           ; preds = %Unr_ManUnrollStart.exit, %.lr.ph
  %.08 = phi i32 [ %44, %.lr.ph ], [ 0, %Unr_ManUnrollStart.exit ]
  %43 = tail call ptr @Unr_ManUnrollFrame(ptr noundef nonnull %3, i32 noundef %.08)
  %44 = add nuw nsw i32 %.08, 1
  %exitcond.not = icmp eq i32 %44, %1
  br i1 %exitcond.not, label %._crit_edge, label %.lr.ph, !llvm.loop !21

._crit_edge:                                      ; preds = %.lr.ph, %Unr_ManUnrollStart.exit
  %45 = getelementptr inbounds nuw i8, ptr %3, i64 8
  %46 = load ptr, ptr %45, align 8
  %47 = tail call ptr @Gia_ManCleanup(ptr noundef %46) #18
  tail call void @Unr_ManFree(ptr noundef nonnull %3)
  ret ptr %47
}